; Function Attrs: mustprogress nounwind uwtable
define internal void @_ZN12_GLOBAL__N_111GOFFOstreamD2Ev(ptr noundef nonnull align 8 dereferenceable(147) %0) unnamed_addr #0 align 2 {
  store ptr getelementptr inbounds inrange(-16, 104) (i8, ptr @_ZTVN12_GLOBAL__N_111GOFFOstreamE, i64 16), ptr %0, align 8
  %2 = getelementptr inbounds nuw i8, ptr %0, i64 56
  %3 = load i64, ptr %2, align 8
  %4 = getelementptr inbounds nuw i8, ptr %0, i64 32
  %5 = load ptr, ptr %4, align 8
  %6 = getelementptr inbounds nuw i8, ptr %0, i64 16
  %7 = load ptr, ptr %6, align 8
  %8 = ptrtoint ptr %5 to i64
  %9 = ptrtoint ptr %7 to i64
  %10 = sub i64 %8, %9
  %.not.i.i = icmp eq i64 %3, %10
  br i1 %.not.i.i, label %15, label %11

11:                                               ; preds = %1
  %12 = sub i64 %3, %10
  %13 = trunc i64 %12 to i32
  %14 = tail call noundef nonnull align 8 dereferenceable(48) ptr @_ZN4llvm11raw_ostream11write_zerosEj(ptr noundef nonnull align 8 dereferenceable(48) %0, i32 noundef %13) #10
  %.pre.i.i = load ptr, ptr %4, align 8
  %.pre2.i.i = load ptr, ptr %6, align 8
  br label %15

15:                                               ; preds = %11, %1
  %16 = phi ptr [ %.pre2.i.i, %11 ], [ %7, %1 ]
  %17 = phi ptr [ %.pre.i.i, %11 ], [ %5, %1 ]
  %.not.i.i.i = icmp eq ptr %17, %16
  br i1 %.not.i.i.i, label %_ZN12_GLOBAL__N_111GOFFOstream8finalizeEv.exit, label %18

18:                                               ; preds = %15
  tail call void @_ZN4llvm11raw_ostream14flush_nonemptyEv(ptr noundef nonnull align 8 dereferenceable(48) %0) #10
  br label %_ZN12_GLOBAL__N_111GOFFOstream8finalizeEv.exit

_ZN12_GLOBAL__N_111GOFFOstream8finalizeEv.exit:   ; preds = %15, %18
  tail call void @_ZN4llvm11raw_ostreamD2Ev(ptr noundef nonnull align 8 dereferenceable(48) %0) #10
  ret void
}